target datalayout = "e-m:e-p270:32:32-p271:32:32-p272:64:64-i64:64-i128:128-f80:128-n8:16:32:64-S128"
target triple = "x86_64-pc-linux-gnu"

%struct.Ssc_Man_t_ = type { ptr, ptr, ptr, ptr, ptr, ptr, ptr, ptr, i32, i32, ptr, ptr, ptr, ptr, i32, i32, i32, i32, i32, i32, i32, i64, i64, i64, i64, i64, i64, i64, i64, i64 }
%struct.Vec_Int_t_ = type { i32, i32, ptr }
%struct.sat_solver_t = type { i32, i32, i32, i32, %struct.Sat_Mem_t_, i32, i32, ptr, ptr, i32, i32, i32, i32, i32, i64, i64, i64, ptr, ptr, i32, i32, %struct.veci_t, ptr, i32, ptr, ptr, ptr, ptr, ptr, ptr, ptr, ptr, %struct.veci_t, %struct.veci_t, %struct.veci_t, %struct.veci_t, ptr, %struct.veci_t, i32, i32, i32, double, double, i32, i32, i32, %struct.stats_t, i32, i32, i32, i32, i32, i64, i64, i64, %struct.veci_t, ptr, i32, i32, i32, %struct.veci_t, %struct.veci_t, i32, i32, i32, ptr, ptr, i32, ptr, i32, i32, %struct.veci_t, %struct.veci_t, %struct.veci_t, ptr, ptr, i32, ptr }
%struct.Sat_Mem_t_ = type { [2 x i32], [2 x i32], [2 x i32], [2 x i32], i32, i32, i32, i32, ptr }
%struct.stats_t = type { i32, i32, i32, i64, i64, i64, i64, i64, i64, i64 }
%struct.veci_t = type { i32, i32, ptr }

@.str = private unnamed_addr constant [42 x i8] c"Constraints are UNSAT after propagation.\0A\00", align 1
@.str.1 = private unnamed_addr constant [24 x i8] c"Constraints are UNSAT.\0A\00", align 1
@.str.2 = private unnamed_addr constant [68 x i8] c"Conflict limit is reached while trying to find one SAT assignment.\0A\00", align 1
@.str.3 = private unnamed_addr constant [70 x i8] c"Computed reference pattern violates %d constraints (this is a bug!).\0A\00", align 1

; Function Attrs: inlinehint nounwind uwtable
define internal i32 @Sat_MemLimit(ptr noundef %0) #2 {
  %2 = alloca ptr, align 8
  store ptr %0, ptr %2, align 8, !tbaa !128
  %3 = load ptr, ptr %2, align 8, !tbaa !128
  %4 = getelementptr inbounds i32, ptr %3, i64 0
  %5 = load i32, ptr %4, align 4, !tbaa !60
  ret i32 %5
}

; Function Attrs: inlinehint nounwind uwtable
define internal i32 @Sat_MemHandCurrent(ptr noundef %0, i32 noundef %1) #2 {
  %3 = alloca ptr, align 8
  %4 = alloca i32, align 4
  store ptr %0, ptr %3, align 8, !tbaa !124
  store i32 %1, ptr %4, align 4, !tbaa !60
  %5 = load ptr, ptr %3, align 8, !tbaa !124
  %6 = getelementptr inbounds nuw %struct.Sat_Mem_t_, ptr %5, i32 0, i32 3
  %7 = load i32, ptr %4, align 4, !tbaa !60
  %8 = sext i32 %7 to i64
  %9 = getelementptr inbounds [2 x i32], ptr %6, i64 0, i64 %8
  %10 = load i32, ptr %9, align 4, !tbaa !60
  %11 = load ptr, ptr %3, align 8, !tbaa !124
  %12 = getelementptr inbounds nuw %struct.Sat_Mem_t_, ptr %11, i32 0, i32 4
  %13 = load i32, ptr %12, align 8, !tbaa !126
  %14 = shl i32 %10, %13
  %15 = load ptr, ptr %3, align 8, !tbaa !124
  %16 = getelementptr inbounds nuw %struct.Sat_Mem_t_, ptr %15, i32 0, i32 8
  %17 = load ptr, ptr %16, align 8, !tbaa !127
  %18 = load ptr, ptr %3, align 8, !tbaa !124
  %19 = getelementptr inbounds nuw %struct.Sat_Mem_t_, ptr %18, i32 0, i32 3
  %20 = load i32, ptr %4, align 4, !tbaa !60
  %21 = sext i32 %20 to i64
  %22 = getelementptr inbounds [2 x i32], ptr %19, i64 0, i64 %21
  %23 = load i32, ptr %22, align 4, !tbaa !60
  %24 = sext i32 %23 to i64
  %25 = getelementptr inbounds ptr, ptr %17, i64 %24
  %26 = load ptr, ptr %25, align 8, !tbaa !128
  %27 = call i32 @Sat_MemLimit(ptr noundef %26)
  %28 = or i32 %14, %27
  ret i32 %28
}

; Function Attrs: inlinehint nounwind uwtable
define internal void @Sat_MemBookMark(ptr noundef %0) #2 {
  %2 = alloca ptr, align 8
  store ptr %0, ptr %2, align 8, !tbaa !124
  %3 = load ptr, ptr %2, align 8, !tbaa !124
  %4 = getelementptr inbounds nuw %struct.Sat_Mem_t_, ptr %3, i32 0, i32 0
  %5 = getelementptr inbounds [2 x i32], ptr %4, i64 0, i64 0
  %6 = load i32, ptr %5, align 8, !tbaa !60
  %7 = load ptr, ptr %2, align 8, !tbaa !124
  %8 = getelementptr inbounds nuw %struct.Sat_Mem_t_, ptr %7, i32 0, i32 2
  %9 = getelementptr inbounds [2 x i32], ptr %8, i64 0, i64 0
  store i32 %6, ptr %9, align 8, !tbaa !60
  %10 = load ptr, ptr %2, align 8, !tbaa !124
  %11 = getelementptr inbounds nuw %struct.Sat_Mem_t_, ptr %10, i32 0, i32 0
  %12 = getelementptr inbounds [2 x i32], ptr %11, i64 0, i64 1
  %13 = load i32, ptr %12, align 4, !tbaa !60
  %14 = load ptr, ptr %2, align 8, !tbaa !124
  %15 = getelementptr inbounds nuw %struct.Sat_Mem_t_, ptr %14, i32 0, i32 2
  %16 = getelementptr inbounds [2 x i32], ptr %15, i64 0, i64 1
  store i32 %13, ptr %16, align 4, !tbaa !60
  %17 = load ptr, ptr %2, align 8, !tbaa !124
  %18 = call i32 @Sat_MemHandCurrent(ptr noundef %17, i32 noundef 0)
  %19 = load ptr, ptr %2, align 8, !tbaa !124
  %20 = getelementptr inbounds nuw %struct.Sat_Mem_t_, ptr %19, i32 0, i32 1
  %21 = getelementptr inbounds [2 x i32], ptr %20, i64 0, i64 0
  store i32 %18, ptr %21, align 8, !tbaa !60
  %22 = load ptr, ptr %2, align 8, !tbaa !124
  %23 = call i32 @Sat_MemHandCurrent(ptr noundef %22, i32 noundef 1)
  %24 = load ptr, ptr %2, align 8, !tbaa !124
  %25 = getelementptr inbounds nuw %struct.Sat_Mem_t_, ptr %24, i32 0, i32 1
  %26 = getelementptr inbounds [2 x i32], ptr %25, i64 0, i64 1
  store i32 %23, ptr %26, align 4, !tbaa !60
  ret void
}

; Function Attrs: inlinehint nounwind uwtable
define internal ptr @Vec_IntAlloc(i32 noundef %0) #2 {
  %2 = alloca i32, align 4
  %3 = alloca ptr, align 8
  store i32 %0, ptr %2, align 4, !tbaa !60
  call void @llvm.lifetime.start.p0(i64 8, ptr %3) #13
  %4 = call noalias ptr @malloc(i64 noundef 16) #15
  store ptr %4, ptr %3, align 8, !tbaa !25
  %5 = load i32, ptr %2, align 4, !tbaa !60
  %6 = icmp sgt i32 %5, 0
  br i1 %6, label %7, label %11

7:                                                ; preds = %1
  %8 = load i32, ptr %2, align 4, !tbaa !60
  %9 = icmp slt i32 %8, 16
  br i1 %9, label %10, label %11

10:                                               ; preds = %7
  store i32 16, ptr %2, align 4, !tbaa !60
  br label %11

11:                                               ; preds = %10, %7, %1
  %12 = load ptr, ptr %3, align 8, !tbaa !25
  %13 = getelementptr inbounds nuw %struct.Vec_Int_t_, ptr %12, i32 0, i32 1
  store i32 0, ptr %13, align 4, !tbaa !61
  %14 = load i32, ptr %2, align 4, !tbaa !60
  %15 = load ptr, ptr %3, align 8, !tbaa !25
  %16 = getelementptr inbounds nuw %struct.Vec_Int_t_, ptr %15, i32 0, i32 0
  store i32 %14, ptr %16, align 8, !tbaa !62
  %17 = load ptr, ptr %3, align 8, !tbaa !25
  %18 = getelementptr inbounds nuw %struct.Vec_Int_t_, ptr %17, i32 0, i32 0
  %19 = load i32, ptr %18, align 8, !tbaa !62
  %20 = icmp ne i32 %19, 0
  br i1 %20, label %21, label %28

21:                                               ; preds = %11
  %22 = load ptr, ptr %3, align 8, !tbaa !25
  %23 = getelementptr inbounds nuw %struct.Vec_Int_t_, ptr %22, i32 0, i32 0
  %24 = load i32, ptr %23, align 8, !tbaa !62
  %25 = sext i32 %24 to i64
  %26 = mul i64 4, %25
  %27 = call noalias ptr @malloc(i64 noundef %26) #15
  br label %29

28:                                               ; preds = %11
  br label %29

29:                                               ; preds = %28, %21
  %30 = phi ptr [ %27, %21 ], [ null, %28 ]
  %31 = load ptr, ptr %3, align 8, !tbaa !25
  %32 = getelementptr inbounds nuw %struct.Vec_Int_t_, ptr %31, i32 0, i32 2
  store ptr %30, ptr %32, align 8, !tbaa !26
  %33 = load ptr, ptr %3, align 8, !tbaa !25
  call void @llvm.lifetime.end.p0(i64 8, ptr %3) #13
  ret ptr %33
}

; Function Attrs: inlinehint nounwind uwtable
define internal void @sat_solver_bookmark(ptr noundef %0) #2 {
  %2 = alloca ptr, align 8
  store ptr %0, ptr %2, align 8, !tbaa !39
  %3 = load ptr, ptr %2, align 8, !tbaa !39
  %4 = getelementptr inbounds nuw %struct.sat_solver_t, ptr %3, i32 0, i32 0
  %5 = load i32, ptr %4, align 8, !tbaa !40
  %6 = load ptr, ptr %2, align 8, !tbaa !39
  %7 = getelementptr inbounds nuw %struct.sat_solver_t, ptr %6, i32 0, i32 9
  store i32 %5, ptr %7, align 8, !tbaa !53
  %8 = load ptr, ptr %2, align 8, !tbaa !39
  %9 = getelementptr inbounds nuw %struct.sat_solver_t, ptr %8, i32 0, i32 2
  %10 = load i32, ptr %9, align 8, !tbaa !54
  %11 = load ptr, ptr %2, align 8, !tbaa !39
  %12 = getelementptr inbounds nuw %struct.sat_solver_t, ptr %11, i32 0, i32 10
  store i32 %10, ptr %12, align 4, !tbaa !55
  %13 = load ptr, ptr %2, align 8, !tbaa !39
  %14 = getelementptr inbounds nuw %struct.sat_solver_t, ptr %13, i32 0, i32 4
  call void @Sat_MemBookMark(ptr noundef %14)
  %15 = load ptr, ptr %2, align 8, !tbaa !39
  %16 = getelementptr inbounds nuw %struct.sat_solver_t, ptr %15, i32 0, i32 18
  %17 = load ptr, ptr %16, align 8, !tbaa !56
  %18 = icmp ne ptr %17, null
  br i1 %18, label %19, label %36

19:                                               ; preds = %1
  %20 = load ptr, ptr %2, align 8, !tbaa !39
  %21 = getelementptr inbounds nuw %struct.sat_solver_t, ptr %20, i32 0, i32 14
  %22 = load i64, ptr %21, align 8, !tbaa !57
  %23 = load ptr, ptr %2, align 8, !tbaa !39
  %24 = getelementptr inbounds nuw %struct.sat_solver_t, ptr %23, i32 0, i32 15
  store i64 %22, ptr %24, align 8, !tbaa !58
  %25 = load ptr, ptr %2, align 8, !tbaa !39
  %26 = getelementptr inbounds nuw %struct.sat_solver_t, ptr %25, i32 0, i32 18
  %27 = load ptr, ptr %26, align 8, !tbaa !56
  %28 = load ptr, ptr %2, align 8, !tbaa !39
  %29 = getelementptr inbounds nuw %struct.sat_solver_t, ptr %28, i32 0, i32 17
  %30 = load ptr, ptr %29, align 8, !tbaa !59
  %31 = load ptr, ptr %2, align 8, !tbaa !39
  %32 = getelementptr inbounds nuw %struct.sat_solver_t, ptr %31, i32 0, i32 9
  %33 = load i32, ptr %32, align 8, !tbaa !53
  %34 = sext i32 %33 to i64
  %35 = mul i64 8, %34
  call void @llvm.memcpy.p0.p0.i64(ptr align 8 %27, ptr align 8 %30, i64 %35, i1 false)
  br label %36

36:                                               ; preds = %19, %1
  ret void
}

; Function Attrs: nounwind uwtable
define ptr @Ssc_ManStart(ptr noundef %0, ptr noundef %1, ptr noundef %2) #0 {
  %4 = alloca ptr, align 8
  %5 = alloca ptr, align 8
  %6 = alloca ptr, align 8
  %7 = alloca ptr, align 8
  %8 = alloca ptr, align 8
  %9 = alloca i32, align 4
  store ptr %0, ptr %5, align 8, !tbaa !29
  store ptr %1, ptr %6, align 8, !tbaa !29
  store ptr %2, ptr %7, align 8, !tbaa !3
  call void @llvm.lifetime.start.p0(i64 8, ptr %8) #13
  %10 = call noalias ptr @calloc(i64 noundef 1, i64 noundef 208) #14
  store ptr %10, ptr %8, align 8, !tbaa !15
  %11 = load ptr, ptr %7, align 8, !tbaa !3
  %12 = load ptr, ptr %8, align 8, !tbaa !15
  %13 = getelementptr inbounds nuw %struct.Ssc_Man_t_, ptr %12, i32 0, i32 0
  store ptr %11, ptr %13, align 8, !tbaa !30
  %14 = load ptr, ptr %5, align 8, !tbaa !29
  %15 = load ptr, ptr %8, align 8, !tbaa !15
  %16 = getelementptr inbounds nuw %struct.Ssc_Man_t_, ptr %15, i32 0, i32 1
  store ptr %14, ptr %16, align 8, !tbaa !31
  %17 = load ptr, ptr %6, align 8, !tbaa !29
  %18 = load ptr, ptr %8, align 8, !tbaa !15
  %19 = getelementptr inbounds nuw %struct.Ssc_Man_t_, ptr %18, i32 0, i32 2
  store ptr %17, ptr %19, align 8, !tbaa !32
  %20 = load ptr, ptr %8, align 8, !tbaa !15
  %21 = getelementptr inbounds nuw %struct.Ssc_Man_t_, ptr %20, i32 0, i32 2
  %22 = load ptr, ptr %21, align 8, !tbaa !32
  %23 = call ptr @Gia_ManDupDfs(ptr noundef %22)
  %24 = load ptr, ptr %8, align 8, !tbaa !15
  %25 = getelementptr inbounds nuw %struct.Ssc_Man_t_, ptr %24, i32 0, i32 3
  store ptr %23, ptr %25, align 8, !tbaa !33
  %26 = load ptr, ptr %8, align 8, !tbaa !15
  %27 = getelementptr inbounds nuw %struct.Ssc_Man_t_, ptr %26, i32 0, i32 3
  %28 = load ptr, ptr %27, align 8, !tbaa !33
  call void @Gia_ManInvertPos(ptr noundef %28)
  %29 = load ptr, ptr %8, align 8, !tbaa !15
  call void @Ssc_ManStartSolver(ptr noundef %29)
  %30 = load ptr, ptr %8, align 8, !tbaa !15
  %31 = getelementptr inbounds nuw %struct.Ssc_Man_t_, ptr %30, i32 0, i32 4
  %32 = load ptr, ptr %31, align 8, !tbaa !17
  %33 = icmp eq ptr %32, null
  br i1 %33, label %34, label %37

34:                                               ; preds = %3
  %35 = call i32 (ptr, ...) @printf(ptr noundef @.str)
  %36 = load ptr, ptr %8, align 8, !tbaa !15
  call void @Ssc_ManStop(ptr noundef %36)
  store ptr inttoptr (i64 1 to ptr), ptr %4, align 8
  store i32 1, ptr %9, align 4
  br label %100

37:                                               ; preds = %3
  %38 = load ptr, ptr %8, align 8, !tbaa !15
  %39 = call ptr @Ssc_ManFindPivotSat(ptr noundef %38)
  %40 = load ptr, ptr %8, align 8, !tbaa !15
  %41 = getelementptr inbounds nuw %struct.Ssc_Man_t_, ptr %40, i32 0, i32 7
  store ptr %39, ptr %41, align 8, !tbaa !34
  %42 = load ptr, ptr %8, align 8, !tbaa !15
  %43 = getelementptr inbounds nuw %struct.Ssc_Man_t_, ptr %42, i32 0, i32 7
  %44 = load ptr, ptr %43, align 8, !tbaa !34
  %45 = icmp eq ptr %44, inttoptr (i64 1 to ptr)
  br i1 %45, label %46, label %49

46:                                               ; preds = %37
  %47 = call i32 (ptr, ...) @printf(ptr noundef @.str.1)
  %48 = load ptr, ptr %8, align 8, !tbaa !15
  call void @Ssc_ManStop(ptr noundef %48)
  store ptr inttoptr (i64 1 to ptr), ptr %4, align 8
  store i32 1, ptr %9, align 4
  br label %100

49:                                               ; preds = %37
  %50 = load ptr, ptr %8, align 8, !tbaa !15
  %51 = getelementptr inbounds nuw %struct.Ssc_Man_t_, ptr %50, i32 0, i32 7
  %52 = load ptr, ptr %51, align 8, !tbaa !34
  %53 = icmp eq ptr %52, null
  br i1 %53, label %54, label %57

54:                                               ; preds = %49
  %55 = call i32 (ptr, ...) @printf(ptr noundef @.str.2)
  %56 = load ptr, ptr %8, align 8, !tbaa !15
  call void @Ssc_ManStop(ptr noundef %56)
  store ptr null, ptr %4, align 8
  store i32 1, ptr %9, align 4
  br label %100

57:                                               ; preds = %49
  %58 = load ptr, ptr %8, align 8, !tbaa !15
  %59 = getelementptr inbounds nuw %struct.Ssc_Man_t_, ptr %58, i32 0, i32 4
  %60 = load ptr, ptr %59, align 8, !tbaa !17
  call void @sat_solver_bookmark(ptr noundef %60)
  %61 = load ptr, ptr %8, align 8, !tbaa !15
  %62 = getelementptr inbounds nuw %struct.Ssc_Man_t_, ptr %61, i32 0, i32 1
  %63 = load ptr, ptr %62, align 8, !tbaa !31
  %64 = load ptr, ptr %8, align 8, !tbaa !15
  %65 = getelementptr inbounds nuw %struct.Ssc_Man_t_, ptr %64, i32 0, i32 7
  %66 = load ptr, ptr %65, align 8, !tbaa !34
  call void @Gia_ManSetPhasePattern(ptr noundef %63, ptr noundef %66)
  %67 = load ptr, ptr %8, align 8, !tbaa !15
  %68 = getelementptr inbounds nuw %struct.Ssc_Man_t_, ptr %67, i32 0, i32 2
  %69 = load ptr, ptr %68, align 8, !tbaa !32
  %70 = load ptr, ptr %8, align 8, !tbaa !15
  %71 = getelementptr inbounds nuw %struct.Ssc_Man_t_, ptr %70, i32 0, i32 7
  %72 = load ptr, ptr %71, align 8, !tbaa !34
  call void @Gia_ManSetPhasePattern(ptr noundef %69, ptr noundef %72)
  %73 = load ptr, ptr %8, align 8, !tbaa !15
  %74 = getelementptr inbounds nuw %struct.Ssc_Man_t_, ptr %73, i32 0, i32 2
  %75 = load ptr, ptr %74, align 8, !tbaa !32
  %76 = call i32 @Gia_ManCheckCoPhase(ptr noundef %75)
  %77 = icmp ne i32 %76, 0
  br i1 %77, label %78, label %85

78:                                               ; preds = %57
  %79 = load ptr, ptr %8, align 8, !tbaa !15
  %80 = getelementptr inbounds nuw %struct.Ssc_Man_t_, ptr %79, i32 0, i32 2
  %81 = load ptr, ptr %80, align 8, !tbaa !32
  %82 = call i32 @Gia_ManCheckCoPhase(ptr noundef %81)
  %83 = call i32 (ptr, ...) @printf(ptr noundef @.str.3, i32 noundef %82)
  %84 = load ptr, ptr %8, align 8, !tbaa !15
  call void @Ssc_ManStop(ptr noundef %84)
  store ptr null, ptr %4, align 8
  store i32 1, ptr %9, align 4
  br label %100

85:                                               ; preds = %57
  %86 = call ptr @Vec_IntAlloc(i32 noundef 100)
  %87 = load ptr, ptr %8, align 8, !tbaa !15
  %88 = getelementptr inbounds nuw %struct.Ssc_Man_t_, ptr %87, i32 0, i32 13
  store ptr %86, ptr %88, align 8, !tbaa !35
  %89 = call ptr @Vec_IntAlloc(i32 noundef 100)
  %90 = load ptr, ptr %8, align 8, !tbaa !15
  %91 = getelementptr inbounds nuw %struct.Ssc_Man_t_, ptr %90, i32 0, i32 12
  store ptr %89, ptr %91, align 8, !tbaa !36
  %92 = call ptr @Vec_IntAlloc(i32 noundef 100)
  %93 = load ptr, ptr %8, align 8, !tbaa !15
  %94 = getelementptr inbounds nuw %struct.Ssc_Man_t_, ptr %93, i32 0, i32 11
  store ptr %92, ptr %94, align 8, !tbaa !37
  %95 = call ptr @Vec_IntAlloc(i32 noundef 100)
  %96 = load ptr, ptr %8, align 8, !tbaa !15
  %97 = getelementptr inbounds nuw %struct.Ssc_Man_t_, ptr %96, i32 0, i32 10
  store ptr %95, ptr %97, align 8, !tbaa !38
  %98 = load ptr, ptr %5, align 8, !tbaa !29
  call void @Ssc_GiaClassesInit(ptr noundef %98)
  %99 = load ptr, ptr %8, align 8, !tbaa !15
  store ptr %99, ptr %4, align 8
  store i32 1, ptr %9, align 4
  br label %100

100:                                              ; preds = %85, %78, %54, %46, %34
  call void @llvm.lifetime.end.p0(i64 8, ptr %8) #13
  %101 = load ptr, ptr %4, align 8
  ret ptr %101
}