; Function Attrs: nounwind uwtable
define noundef ptr @Ssc_ManStart(ptr noundef %0, ptr noundef %1, ptr noundef %2) local_unnamed_addr #2 {
  %4 = tail call noalias dereferenceable_or_null(208) ptr @calloc(i64 noundef 1, i64 noundef 208) #20
  store ptr %2, ptr %4, align 8, !tbaa !23
  %5 = getelementptr inbounds nuw i8, ptr %4, i64 8
  store ptr %0, ptr %5, align 8, !tbaa !24
  %6 = getelementptr inbounds nuw i8, ptr %4, i64 16
  store ptr %1, ptr %6, align 8, !tbaa !25
  %7 = tail call ptr @Gia_ManDupDfs(ptr noundef %1) #19
  %8 = getelementptr inbounds nuw i8, ptr %4, i64 24
  store ptr %7, ptr %8, align 8, !tbaa !26
  tail call void @Gia_ManInvertPos(ptr noundef %7) #19
  tail call void @Ssc_ManStartSolver(ptr noundef nonnull %4) #19
  %9 = getelementptr inbounds nuw i8, ptr %4, i64 32
  %10 = load ptr, ptr %9, align 8, !tbaa !17
  %11 = icmp eq ptr %10, null
  br i1 %11, label %12, label %13

12:                                               ; preds = %3
  %puts35 = tail call i32 @puts(ptr nonnull dereferenceable(1) @str.2)
  tail call void @Ssc_ManStop(ptr noundef nonnull %4)
  br label %92

13:                                               ; preds = %3
  %14 = tail call ptr @Ssc_ManFindPivotSat(ptr noundef nonnull %4) #19
  %15 = getelementptr inbounds nuw i8, ptr %4, i64 56
  store ptr %14, ptr %15, align 8, !tbaa !27
  %magicptr = ptrtoint ptr %14 to i64
  switch i64 %magicptr, label %18 [
    i64 1, label %16
    i64 0, label %17
  ]

16:                                               ; preds = %13
  %puts34 = tail call i32 @puts(ptr nonnull dereferenceable(1) @str.1)
  tail call void @Ssc_ManStop(ptr noundef nonnull %4)
  br label %92

17:                                               ; preds = %13
  %puts = tail call i32 @puts(ptr nonnull dereferenceable(1) @str)
  tail call void @Ssc_ManStop(ptr noundef nonnull %4)
  br label %92

18:                                               ; preds = %13
  %19 = load ptr, ptr %9, align 8, !tbaa !17
  %20 = load i32, ptr %19, align 8, !tbaa !28
  %21 = getelementptr inbounds nuw i8, ptr %19, i64 96
  store i32 %20, ptr %21, align 8, !tbaa !41
  %22 = getelementptr inbounds nuw i8, ptr %19, i64 8
  %23 = load i32, ptr %22, align 8, !tbaa !42
  %24 = getelementptr inbounds nuw i8, ptr %19, i64 100
  store i32 %23, ptr %24, align 4, !tbaa !43
  %25 = getelementptr inbounds nuw i8, ptr %19, i64 16
  %26 = load i32, ptr %25, align 8, !tbaa !44
  %27 = getelementptr inbounds nuw i8, ptr %19, i64 32
  store i32 %26, ptr %27, align 8, !tbaa !44
  %28 = getelementptr inbounds nuw i8, ptr %19, i64 20
  %29 = load i32, ptr %28, align 4, !tbaa !44
  %30 = getelementptr inbounds nuw i8, ptr %19, i64 36
  store i32 %29, ptr %30, align 4, !tbaa !44
  %31 = getelementptr inbounds nuw i8, ptr %19, i64 40
  %32 = load i32, ptr %31, align 4, !tbaa !44
  %33 = getelementptr inbounds nuw i8, ptr %19, i64 48
  %34 = load i32, ptr %33, align 8, !tbaa !45
  %35 = shl i32 %32, %34
  %36 = getelementptr inbounds nuw i8, ptr %19, i64 64
  %37 = load ptr, ptr %36, align 8, !tbaa !46
  %38 = sext i32 %32 to i64
  %39 = getelementptr inbounds ptr, ptr %37, i64 %38
  %40 = load ptr, ptr %39, align 8, !tbaa !47
  %.val.i.i.i = load i32, ptr %40, align 4, !tbaa !44
  %41 = or i32 %.val.i.i.i, %35
  %42 = getelementptr inbounds nuw i8, ptr %19, i64 24
  store i32 %41, ptr %42, align 8, !tbaa !44
  %43 = getelementptr inbounds nuw i8, ptr %19, i64 44
  %44 = load i32, ptr %43, align 4, !tbaa !44
  %45 = shl i32 %44, %34
  %46 = sext i32 %44 to i64
  %47 = getelementptr inbounds ptr, ptr %37, i64 %46
  %48 = load ptr, ptr %47, align 8, !tbaa !47
  %.val.i8.i.i = load i32, ptr %48, align 4, !tbaa !44
  %49 = or i32 %.val.i8.i.i, %45
  %50 = getelementptr inbounds nuw i8, ptr %19, i64 28
  store i32 %49, ptr %50, align 4, !tbaa !44
  %51 = getelementptr inbounds nuw i8, ptr %19, i64 152
  %52 = load ptr, ptr %51, align 8, !tbaa !48
  %.not.i = icmp eq ptr %52, null
  br i1 %.not.i, label %sat_solver_bookmark.exit, label %53

53:                                               ; preds = %18
  %54 = getelementptr inbounds nuw i8, ptr %19, i64 120
  %55 = load i64, ptr %54, align 8, !tbaa !49
  %56 = getelementptr inbounds nuw i8, ptr %19, i64 128
  store i64 %55, ptr %56, align 8, !tbaa !50
  %57 = getelementptr inbounds nuw i8, ptr %19, i64 144
  %58 = load ptr, ptr %57, align 8, !tbaa !51
  %59 = sext i32 %20 to i64
  %60 = shl nsw i64 %59, 3
  tail call void @llvm.memcpy.p0.p0.i64(ptr nonnull align 8 %52, ptr align 8 %58, i64 %60, i1 false)
  %.pre = load ptr, ptr %15, align 8, !tbaa !27
  br label %sat_solver_bookmark.exit

sat_solver_bookmark.exit:                         ; preds = %18, %53
  %61 = phi ptr [ %14, %18 ], [ %.pre, %53 ]
  %62 = load ptr, ptr %5, align 8, !tbaa !24
  tail call void @Gia_ManSetPhasePattern(ptr noundef %62, ptr noundef %61) #19
  %63 = load ptr, ptr %6, align 8, !tbaa !25
  %64 = load ptr, ptr %15, align 8, !tbaa !27
  tail call void @Gia_ManSetPhasePattern(ptr noundef %63, ptr noundef %64) #19
  %65 = load ptr, ptr %6, align 8, !tbaa !25
  %66 = tail call i32 @Gia_ManCheckCoPhase(ptr noundef %65) #19
  %.not = icmp eq i32 %66, 0
  br i1 %.not, label %71, label %67

67:                                               ; preds = %sat_solver_bookmark.exit
  %68 = load ptr, ptr %6, align 8, !tbaa !25
  %69 = tail call i32 @Gia_ManCheckCoPhase(ptr noundef %68) #19
  %70 = tail call i32 (ptr, ...) @printf(ptr noundef nonnull dereferenceable(1) @.str.3, i32 noundef %69)
  tail call void @Ssc_ManStop(ptr noundef nonnull %4)
  br label %92

71:                                               ; preds = %sat_solver_bookmark.exit
  %72 = tail call noalias dereferenceable_or_null(16) ptr @malloc(i64 noundef 16) #21
  %73 = getelementptr inbounds nuw i8, ptr %72, i64 4
  store i32 0, ptr %73, align 4, !tbaa !52
  store i32 100, ptr %72, align 8, !tbaa !53
  %74 = tail call noalias dereferenceable_or_null(400) ptr @malloc(i64 noundef 400) #21
  %75 = getelementptr inbounds nuw i8, ptr %72, i64 8
  store ptr %74, ptr %75, align 8, !tbaa !14
  %76 = getelementptr inbounds nuw i8, ptr %4, i64 96
  store ptr %72, ptr %76, align 8, !tbaa !54
  %77 = tail call noalias dereferenceable_or_null(16) ptr @malloc(i64 noundef 16) #21
  %78 = getelementptr inbounds nuw i8, ptr %77, i64 4
  store i32 0, ptr %78, align 4, !tbaa !52
  store i32 100, ptr %77, align 8, !tbaa !53
  %79 = tail call noalias dereferenceable_or_null(400) ptr @malloc(i64 noundef 400) #21
  %80 = getelementptr inbounds nuw i8, ptr %77, i64 8
  store ptr %79, ptr %80, align 8, !tbaa !14
  %81 = getelementptr inbounds nuw i8, ptr %4, i64 88
  store ptr %77, ptr %81, align 8, !tbaa !55
  %82 = tail call noalias dereferenceable_or_null(16) ptr @malloc(i64 noundef 16) #21
  %83 = getelementptr inbounds nuw i8, ptr %82, i64 4
  store i32 0, ptr %83, align 4, !tbaa !52
  store i32 100, ptr %82, align 8, !tbaa !53
  %84 = tail call noalias dereferenceable_or_null(400) ptr @malloc(i64 noundef 400) #21
  %85 = getelementptr inbounds nuw i8, ptr %82, i64 8
  store ptr %84, ptr %85, align 8, !tbaa !14
  %86 = getelementptr inbounds nuw i8, ptr %4, i64 80
  store ptr %82, ptr %86, align 8, !tbaa !56
  %87 = tail call noalias dereferenceable_or_null(16) ptr @malloc(i64 noundef 16) #21
  %88 = getelementptr inbounds nuw i8, ptr %87, i64 4
  store i32 0, ptr %88, align 4, !tbaa !52
  store i32 100, ptr %87, align 8, !tbaa !53
  %89 = tail call noalias dereferenceable_or_null(400) ptr @malloc(i64 noundef 400) #21
  %90 = getelementptr inbounds nuw i8, ptr %87, i64 8
  store ptr %89, ptr %90, align 8, !tbaa !14
  %91 = getelementptr inbounds nuw i8, ptr %4, i64 72
  store ptr %87, ptr %91, align 8, !tbaa !57
  tail call void @Ssc_GiaClassesInit(ptr noundef %0) #19
  br label %92

92:                                               ; preds = %71, %67, %17, %16, %12
  %.0 = phi ptr [ inttoptr (i64 1 to ptr), %12 ], [ inttoptr (i64 1 to ptr), %16 ], [ null, %17 ], [ null, %67 ], [ %4, %71 ]
  ret ptr %.0
}